target datalayout = "e-m:e-p270:32:32-p271:32:32-p272:64:64-i64:64-i128:128-f80:128-n8:16:32:64-S128"
target triple = "x86_64-unknown-linux-gnu"

; Function Attrs: mustprogress uwtable
define linkonce_odr hidden noundef zeroext i8 @_ZN18OpenImageIO_v2_6_017scaled_conversionIfhfEET0_RKT_T1_S5_S5_(ptr noundef nonnull align 4 dereferenceable(4) %src, float noundef %scale, float noundef %min, float noundef %max) #6 comdat {
entry:
  %a.addr.i = alloca ptr, align 8
  %low.addr.i = alloca ptr, align 8
  %high.addr.i = alloca ptr, align 8
  %val.i = alloca float, align 4
  %src.addr = alloca ptr, align 8
  %scale.addr = alloca float, align 4
  %min.addr = alloca float, align 4
  %max.addr = alloca float, align 4
  %s = alloca float, align 4
  store ptr %src, ptr %src.addr, align 8
  store float %scale, ptr %scale.addr, align 4
  store float %min, ptr %min.addr, align 4
  store float %max, ptr %max.addr, align 4
  %0 = load ptr, ptr %src.addr, align 8
  %1 = load float, ptr %0, align 4
  %2 = load float, ptr %scale.addr, align 4
  %mul = fmul float %1, %2
  store float %mul, ptr %s, align 4
  %3 = load float, ptr %s, align 4
  %cmp = fcmp olt float %3, 0.000000e+00
  %cond = select i1 %cmp, float -5.000000e-01, float 5.000000e-01
  %4 = load float, ptr %s, align 4
  %add = fadd float %4, %cond
  store float %add, ptr %s, align 4
  store ptr %s, ptr %a.addr.i, align 8
  store ptr %min.addr, ptr %low.addr.i, align 8
  store ptr %max.addr, ptr %high.addr.i, align 8
  %5 = load ptr, ptr %a.addr.i, align 8
  %6 = load float, ptr %5, align 4
  store float %6, ptr %val.i, align 4
  %7 = load ptr, ptr %low.addr.i, align 8
  %8 = load float, ptr %7, align 4
  %9 = load float, ptr %val.i, align 4
  %cmp.i = fcmp ole float %8, %9
  br i1 %cmp.i, label %if.end.i, label %if.then.i

if.then.i:                                        ; preds = %entry
  %10 = load ptr, ptr %low.addr.i, align 8
  %11 = load float, ptr %10, align 4
  store float %11, ptr %val.i, align 4
  br label %if.end.i

if.end.i:                                         ; preds = %if.then.i, %entry
  %12 = load float, ptr %val.i, align 4
  %13 = load ptr, ptr %high.addr.i, align 8
  %14 = load float, ptr %13, align 4
  %cmp1.i = fcmp ogt float %12, %14
  br i1 %cmp1.i, label %if.then2.i, label %_ZN18OpenImageIO_v2_6_05clampIfEET_RKS1_S3_S3_.exit

if.then2.i:                                       ; preds = %if.end.i
  %15 = load ptr, ptr %high.addr.i, align 8
  %16 = load float, ptr %15, align 4
  store float %16, ptr %val.i, align 4
  br label %_ZN18OpenImageIO_v2_6_05clampIfEET_RKS1_S3_S3_.exit

_ZN18OpenImageIO_v2_6_05clampIfEET_RKS1_S3_S3_.exit: ; preds = %if.then2.i, %if.end.i
  %17 = load float, ptr %val.i, align 4
  %conv = fptoui float %17 to i8
  ret i8 %conv
}

; Function Attrs: mustprogress nounwind uwtable
define linkonce_odr noundef zeroext i8 @_ZNSt14numeric_limitsIhE3minEv() #4 comdat align 2 {
entry:
  ret i8 0
}

; Function Attrs: mustprogress nounwind uwtable
define linkonce_odr noundef zeroext i8 @_ZNSt14numeric_limitsIhE3maxEv() #4 comdat align 2 {
entry:
  ret i8 -1
}

; Function Attrs: mustprogress uwtable
define linkonce_odr hidden noundef zeroext i8 @_ZN18OpenImageIO_v2_6_012convert_typeIfhEET0_RKT_(ptr noundef nonnull align 4 dereferenceable(4) %src) #6 comdat {
entry:
  %src.addr = alloca ptr, align 8
  %scale = alloca float, align 4
  %min = alloca float, align 4
  %max = alloca float, align 4
  store ptr %src, ptr %src.addr, align 8
  store float 1.000000e+00, ptr %scale, align 4
  %call = call noundef zeroext i8 @_ZNSt14numeric_limitsIhE3minEv() #3
  %conv = uitofp i8 %call to float
  store float %conv, ptr %min, align 4
  %call1 = call noundef zeroext i8 @_ZNSt14numeric_limitsIhE3maxEv() #3
  %conv2 = uitofp i8 %call1 to float
  store float %conv2, ptr %max, align 4
  %0 = load float, ptr %max, align 4
  %1 = load float, ptr %scale, align 4
  %mul = fmul float %1, %0
  store float %mul, ptr %scale, align 4
  %2 = load ptr, ptr %src.addr, align 8
  %3 = load float, ptr %scale, align 4
  %4 = load float, ptr %min, align 4
  %5 = load float, ptr %max, align 4
  %call3 = call noundef zeroext i8 @_ZN18OpenImageIO_v2_6_017scaled_conversionIfhfEET0_RKT_T1_S5_S5_(ptr noundef nonnull align 4 dereferenceable(4) %2, float noundef %3, float noundef %4, float noundef %5)
  ret i8 %call3
}

; Function Attrs: mustprogress nounwind uwtable
define linkonce_odr hidden noundef float @_ZN18OpenImageIO_v2_6_012convert_typeIhfEET0_RKT_(ptr noundef nonnull align 1 dereferenceable(1) %src) #4 comdat {
entry:
  %src.addr = alloca ptr, align 8
  %scale = alloca float, align 4
  store ptr %src, ptr %src.addr, align 8
  %call = call noundef zeroext i8 @_ZNSt14numeric_limitsIhE3maxEv() #3
  %conv = uitofp i8 %call to float
  %div = fdiv float 1.000000e+00, %conv
  store float %div, ptr %scale, align 4
  %0 = load ptr, ptr %src.addr, align 8
  %1 = load i8, ptr %0, align 1
  %conv1 = uitofp i8 %1 to float
  %2 = load float, ptr %scale, align 4
  %mul = fmul float %conv1, %2
  ret float %mul
}

; Function Attrs: mustprogress uwtable
define internal void @_ZN18OpenImageIO_v2_6_0L11cmyk_to_rgbEiPKhmPhm(i32 noundef %n, ptr noundef %cmyk, i64 noundef %cmyk_stride, ptr noundef %rgb, i64 noundef %rgb_stride) #6 {
entry:
  %n.addr = alloca i32, align 4
  %cmyk.addr = alloca ptr, align 8
  %cmyk_stride.addr = alloca i64, align 8
  %rgb.addr = alloca ptr, align 8
  %rgb_stride.addr = alloca i64, align 8
  %C = alloca float, align 4
  %M = alloca float, align 4
  %Y = alloca float, align 4
  %K = alloca float, align 4
  %R = alloca float, align 4
  %G = alloca float, align 4
  %B = alloca float, align 4
  store i32 %n, ptr %n.addr, align 4
  store ptr %cmyk, ptr %cmyk.addr, align 8
  store i64 %cmyk_stride, ptr %cmyk_stride.addr, align 8
  store ptr %rgb, ptr %rgb.addr, align 8
  store i64 %rgb_stride, ptr %rgb_stride.addr, align 8
  br label %for.cond

for.cond:                                         ; preds = %for.inc, %entry
  %0 = load i32, ptr %n.addr, align 4
  %tobool = icmp ne i32 %0, 0
  br i1 %tobool, label %for.body, label %for.end

for.body:                                         ; preds = %for.cond
  %1 = load ptr, ptr %cmyk.addr, align 8
  %arrayidx = getelementptr inbounds i8, ptr %1, i64 0
  %call = call noundef float @_ZN18OpenImageIO_v2_6_012convert_typeIhfEET0_RKT_(ptr noundef nonnull align 1 dereferenceable(1) %arrayidx)
  store float %call, ptr %C, align 4
  %2 = load ptr, ptr %cmyk.addr, align 8
  %arrayidx1 = getelementptr inbounds i8, ptr %2, i64 1
  %call2 = call noundef float @_ZN18OpenImageIO_v2_6_012convert_typeIhfEET0_RKT_(ptr noundef nonnull align 1 dereferenceable(1) %arrayidx1)
  store float %call2, ptr %M, align 4
  %3 = load ptr, ptr %cmyk.addr, align 8
  %arrayidx3 = getelementptr inbounds i8, ptr %3, i64 2
  %call4 = call noundef float @_ZN18OpenImageIO_v2_6_012convert_typeIhfEET0_RKT_(ptr noundef nonnull align 1 dereferenceable(1) %arrayidx3)
  store float %call4, ptr %Y, align 4
  %4 = load ptr, ptr %cmyk.addr, align 8
  %arrayidx5 = getelementptr inbounds i8, ptr %4, i64 3
  %call6 = call noundef float @_ZN18OpenImageIO_v2_6_012convert_typeIhfEET0_RKT_(ptr noundef nonnull align 1 dereferenceable(1) %arrayidx5)
  store float %call6, ptr %K, align 4
  %5 = load float, ptr %C, align 4
  %6 = load float, ptr %K, align 4
  %mul = fmul float %5, %6
  store float %mul, ptr %R, align 4
  %7 = load float, ptr %M, align 4
  %8 = load float, ptr %K, align 4
  %mul7 = fmul float %7, %8
  store float %mul7, ptr %G, align 4
  %9 = load float, ptr %Y, align 4
  %10 = load float, ptr %K, align 4
  %mul8 = fmul float %9, %10
  store float %mul8, ptr %B, align 4
  %call9 = call noundef zeroext i8 @_ZN18OpenImageIO_v2_6_012convert_typeIfhEET0_RKT_(ptr noundef nonnull align 4 dereferenceable(4) %R)
  %11 = load ptr, ptr %rgb.addr, align 8
  %arrayidx10 = getelementptr inbounds i8, ptr %11, i64 0
  store i8 %call9, ptr %arrayidx10, align 1
  %call11 = call noundef zeroext i8 @_ZN18OpenImageIO_v2_6_012convert_typeIfhEET0_RKT_(ptr noundef nonnull align 4 dereferenceable(4) %G)
  %12 = load ptr, ptr %rgb.addr, align 8
  %arrayidx12 = getelementptr inbounds i8, ptr %12, i64 1
  store i8 %call11, ptr %arrayidx12, align 1
  %call13 = call noundef zeroext i8 @_ZN18OpenImageIO_v2_6_012convert_typeIfhEET0_RKT_(ptr noundef nonnull align 4 dereferenceable(4) %B)
  %13 = load ptr, ptr %rgb.addr, align 8
  %arrayidx14 = getelementptr inbounds i8, ptr %13, i64 2
  store i8 %call13, ptr %arrayidx14, align 1
  br label %for.inc

for.inc:                                          ; preds = %for.body
  %14 = load i32, ptr %n.addr, align 4
  %dec = add nsw i32 %14, -1
  store i32 %dec, ptr %n.addr, align 4
  %15 = load i64, ptr %cmyk_stride.addr, align 8
  %16 = load ptr, ptr %cmyk.addr, align 8
  %add.ptr = getelementptr inbounds i8, ptr %16, i64 %15
  store ptr %add.ptr, ptr %cmyk.addr, align 8
  %17 = load i64, ptr %rgb_stride.addr, align 8
  %18 = load ptr, ptr %rgb.addr, align 8
  %add.ptr15 = getelementptr inbounds i8, ptr %18, i64 %17
  store ptr %add.ptr15, ptr %rgb.addr, align 8
  br label %for.cond, !llvm.loop !11

for.end:                                          ; preds = %for.cond
  ret void
}