; Function Attrs: mustprogress nofree norecurse nosync nounwind memory(readwrite, inaccessiblemem: none) uwtable
define internal fastcc void @_ZN18OpenImageIO_v2_6_0L11cmyk_to_rgbEiPKhmPhm(i32 noundef %n, ptr nocapture noundef readonly %cmyk, ptr nocapture noundef writeonly %rgb) unnamed_addr #13 {
entry:
  %tobool.not35 = icmp eq i32 %n, 0
  br i1 %tobool.not35, label %for.end, label %for.body

for.body:                                         ; preds = %entry, %for.body
  %n.addr.038 = phi i32 [ %dec, %for.body ], [ %n, %entry ]
  %cmyk.addr.037 = phi ptr [ %add.ptr, %for.body ], [ %cmyk, %entry ]
  %rgb.addr.036 = phi ptr [ %add.ptr15, %for.body ], [ %rgb, %entry ]
  %arrayidx3 = getelementptr inbounds i8, ptr %cmyk.addr.037, i64 2
  %0 = load <2 x i8>, ptr %arrayidx3, align 1
  %1 = uitofp <2 x i8> %0 to <2 x float>
  %2 = fmul <2 x float> %1, <float 0x3F70101020000000, float 0x3F70101020000000>
  %shift = shufflevector <2 x float> %2, <2 x float> poison, <2 x i32> <i32 1, i32 poison>
  %3 = fmul <2 x float> %2, %shift
  %mul8 = extractelement <2 x float> %3, i64 0
  %4 = load <2 x i8>, ptr %cmyk.addr.037, align 1
  %5 = uitofp <2 x i8> %4 to <2 x float>
  %6 = fmul <2 x float> %5, <float 0x3F70101020000000, float 0x3F70101020000000>
  %7 = shufflevector <2 x float> %2, <2 x float> poison, <2 x i32> <i32 1, i32 1>
  %8 = fmul <2 x float> %6, %7
  %9 = fmul <2 x float> %8, <float 2.550000e+02, float 2.550000e+02>
  %10 = fcmp olt <2 x float> %9, zeroinitializer
  %11 = select <2 x i1> %10, <2 x float> <float -5.000000e-01, float -5.000000e-01>, <2 x float> <float 5.000000e-01, float 5.000000e-01>
  %12 = fadd <2 x float> %9, %11
  %13 = fcmp oge <2 x float> %12, zeroinitializer
  %14 = select <2 x i1> %13, <2 x float> %12, <2 x float> zeroinitializer
  %15 = fcmp ogt <2 x float> %14, <float 2.550000e+02, float 2.550000e+02>
  %16 = extractelement <2 x i1> %15, i64 0
  %17 = extractelement <2 x float> %14, i64 0
  %18 = fptoui float %17 to i8
  %conv.i.i = select i1 %16, i8 -1, i8 %18
  store i8 %conv.i.i, ptr %rgb.addr.036, align 1
  %19 = extractelement <2 x i1> %15, i64 1
  %20 = extractelement <2 x float> %14, i64 1
  %21 = fptoui float %20 to i8
  %conv.i.i25 = select i1 %19, i8 -1, i8 %21
  %arrayidx12 = getelementptr inbounds i8, ptr %rgb.addr.036, i64 1
  store i8 %conv.i.i25, ptr %arrayidx12, align 1
  %mul.i.i26 = fmul float %mul8, 2.550000e+02
  %cmp.i.i27 = fcmp olt float %mul.i.i26, 0.000000e+00
  %cond.i.i28 = select i1 %cmp.i.i27, float -5.000000e-01, float 5.000000e-01
  %add.i.i29 = fadd float %mul.i.i26, %cond.i.i28
  %cmp.i.inv.i.i30 = fcmp oge float %add.i.i29, 0.000000e+00
  %val.i.0.i.i31 = select i1 %cmp.i.inv.i.i30, float %add.i.i29, float 0.000000e+00
  %cmp1.i.i.i32 = fcmp ogt float %val.i.0.i.i31, 2.550000e+02
  %val.i.1.i.i33 = select i1 %cmp1.i.i.i32, float 2.550000e+02, float %val.i.0.i.i31
  %conv.i.i34 = fptoui float %val.i.1.i.i33 to i8
  %arrayidx14 = getelementptr inbounds i8, ptr %rgb.addr.036, i64 2
  store i8 %conv.i.i34, ptr %arrayidx14, align 1
  %dec = add nsw i32 %n.addr.038, -1
  %add.ptr = getelementptr inbounds i8, ptr %cmyk.addr.037, i64 4
  %add.ptr15 = getelementptr inbounds i8, ptr %rgb.addr.036, i64 3
  %tobool.not = icmp eq i32 %dec, 0
  br i1 %tobool.not, label %for.end, label %for.body, !llvm.loop !34

for.end:                                          ; preds = %for.body, %entry
  ret void
}